target datalayout = "e-m:e-p270:32:32-p271:32:32-p272:64:64-i64:64-i128:128-f80:128-n8:16:32:64-S128"
target triple = "x86_64-pc-linux-gnu"

%struct.H5O_shared_t = type { i32, ptr, i32, %union.anon }
%union.anon = type { %struct.H5O_mesg_loc_t }
%struct.H5O_mesg_loc_t = type { i32, i64 }
%struct.H5A_t = type { %struct.H5O_shared_t, %struct.H5O_loc_t, i8, %struct.H5G_name_t, ptr }
%struct.H5O_loc_t = type { ptr, i64, i8 }
%struct.H5G_name_t = type { ptr, ptr, i32 }
%struct.H5A_shared_t = type { i8, ptr, i32, ptr, i64, ptr, i64, ptr, i64, i32, i32 }

@H5O_init_g = external global i8, align 1
@H5_libterm_g = external global i8, align 1

; Function Attrs: nounwind uwtable
define internal i32 @H5O__attr_set_crt_index(ptr noundef %0, i32 noundef %1) #1 {
  %3 = alloca ptr, align 8
  %4 = alloca i32, align 4
  %5 = alloca ptr, align 8
  store ptr %0, ptr %3, align 8, !tbaa !18
  store i32 %1, ptr %4, align 4, !tbaa !10
  call void @llvm.lifetime.start.p0(i64 8, ptr %5) #9
  %6 = load ptr, ptr %3, align 8, !tbaa !18
  store ptr %6, ptr %5, align 8, !tbaa !27
  %7 = load i8, ptr @H5O_init_g, align 1, !tbaa !19, !range !21, !noundef !22
  %8 = trunc i8 %7 to i1
  br i1 %8, label %13, label %9

9:                                                ; preds = %2
  %10 = load i8, ptr @H5_libterm_g, align 1, !tbaa !19, !range !21, !noundef !22
  %11 = trunc i8 %10 to i1
  %12 = xor i1 %11, true
  br label %13

13:                                               ; preds = %9, %2
  %14 = phi i1 [ true, %2 ], [ %12, %9 ]
  %15 = xor i1 %14, true
  %16 = xor i1 %15, true
  %17 = zext i1 %16 to i32
  %18 = sext i32 %17 to i64
  %19 = call i64 @llvm.expect.i64(i64 %18, i64 1)
  %20 = icmp ne i64 %19, 0
  br i1 %20, label %21, label %27

21:                                               ; preds = %13
  %22 = load i32, ptr %4, align 4, !tbaa !10
  %23 = load ptr, ptr %5, align 8, !tbaa !27
  %24 = getelementptr inbounds nuw %struct.H5A_t, ptr %23, i32 0, i32 4
  %25 = load ptr, ptr %24, align 8, !tbaa !33
  %26 = getelementptr inbounds nuw %struct.H5A_shared_t, ptr %25, i32 0, i32 9
  store i32 %22, ptr %26, align 8, !tbaa !51
  br label %27

27:                                               ; preds = %21, %13
  call void @llvm.lifetime.end.p0(i64 8, ptr %5) #9
  ret i32 0
}